target datalayout = "e-m:e-p270:32:32-p271:32:32-p272:64:64-i64:64-i128:128-f80:128-n8:16:32:64-S128"
target triple = "x86_64-pc-linux-gnu"

%struct.gmx_rmpbc = type { ptr, ptr, i32, i32, i32, ptr }
%struct.t_idef = type { i32, i32, ptr, ptr, float, ptr, ptr, [94 x %struct.t_ilist], i32 }
%struct.t_ilist = type { i32, ptr, i32 }

@.str = private unnamed_addr constant [5 x i8] c"gpbc\00", align 1
@.str.1 = private unnamed_addr constant [123 x i8] c"generated/home/dtcxzyw/WorkSpace/Projects/compilers/llvm-opt-benchmark/bench/gromacs/gromacs/src/gromacs/pbcutil/rmpbc.cpp\00", align 1
@stderr = external global ptr, align 8
@.str.2 = private unnamed_addr constant [223 x i8] c"\0AWARNING: If there are molecules in the input trajectory file\0A         that are broken across periodic boundaries, they\0A         cannot be made whole (or treated as whole) without\0A         you providing a run input file.\0A\0A\00", align 1

; Function Attrs: mustprogress uwtable
define internal void @_ZL13gmx_snew_implI9gmx_rmpbcEvPKcS2_iRPT_m(ptr noundef %0, ptr noundef %1, i32 noundef %2, ptr noundef nonnull align 8 dereferenceable(8) %3, i64 noundef %4) #0 {
  %6 = alloca ptr, align 8
  %7 = alloca ptr, align 8
  %8 = alloca i32, align 4
  %9 = alloca ptr, align 8
  %10 = alloca i64, align 8
  store ptr %0, ptr %6, align 8
  store ptr %1, ptr %7, align 8
  store i32 %2, ptr %8, align 4
  store ptr %3, ptr %9, align 8
  store i64 %4, ptr %10, align 8
  %11 = load ptr, ptr %6, align 8
  %12 = load ptr, ptr %7, align 8
  %13 = load i32, ptr %8, align 4
  %14 = load i64, ptr %10, align 8
  %15 = call noundef ptr @_Z11save_callocPKcS0_imm(ptr noundef %11, ptr noundef %12, i32 noundef %13, i64 noundef %14, i64 noundef 40)
  %16 = load ptr, ptr %9, align 8
  store ptr %15, ptr %16, align 8
  ret void
}

; Function Attrs: mustprogress uwtable
define noundef ptr @_Z14gmx_rmpbc_initPK6t_idef7PbcTypei(ptr noundef %0, i32 noundef %1, i32 noundef %2) #0 {
  %4 = alloca ptr, align 8
  %5 = alloca i32, align 4
  %6 = alloca i32, align 4
  %7 = alloca ptr, align 8
  store ptr %0, ptr %4, align 8
  store i32 %1, ptr %5, align 4
  store i32 %2, ptr %6, align 4
  call void @_ZL13gmx_snew_implI9gmx_rmpbcEvPKcS2_iRPT_m(ptr noundef @.str, ptr noundef @.str.1, i32 noundef 141, ptr noundef nonnull align 8 dereferenceable(8) %7, i64 noundef 1)
  %8 = load i32, ptr %6, align 4
  %9 = load ptr, ptr %7, align 8
  %10 = getelementptr inbounds %struct.gmx_rmpbc, ptr %9, i32 0, i32 2
  store i32 %8, ptr %10, align 8
  %11 = load i32, ptr %5, align 4
  %12 = load ptr, ptr %7, align 8
  %13 = getelementptr inbounds %struct.gmx_rmpbc, ptr %12, i32 0, i32 3
  store i32 %11, ptr %13, align 4
  %14 = load ptr, ptr %4, align 8
  %15 = load ptr, ptr %7, align 8
  %16 = getelementptr inbounds %struct.gmx_rmpbc, ptr %15, i32 0, i32 1
  store ptr %14, ptr %16, align 8
  %17 = load ptr, ptr %7, align 8
  %18 = getelementptr inbounds %struct.gmx_rmpbc, ptr %17, i32 0, i32 1
  %19 = load ptr, ptr %18, align 8
  %20 = getelementptr inbounds %struct.t_idef, ptr %19, i32 0, i32 0
  %21 = load i32, ptr %20, align 8
  %22 = icmp sle i32 %21, 0
  br i1 %22, label %23, label %26

23:                                               ; preds = %3
  %24 = load ptr, ptr @stderr, align 8
  %25 = call i32 (ptr, ptr, ...) @fprintf(ptr noundef %24, ptr noundef @.str.2) #9
  br label %26

26:                                               ; preds = %23, %3
  %27 = load ptr, ptr %7, align 8
  ret ptr %27
}