; Function Attrs: mustprogress uwtable
define noundef ptr @_Z14gmx_rmpbc_initPK6t_idef7PbcTypei(ptr noundef %0, i32 noundef %1, i32 noundef %2) local_unnamed_addr #0 {
  %4 = tail call noundef ptr @_Z11save_callocPKcS0_imm(ptr noundef nonnull @.str, ptr noundef nonnull @.str.1, i32 noundef 141, i64 noundef 1, i64 noundef 40)
  %5 = getelementptr inbounds i8, ptr %4, i64 16
  store i32 %2, ptr %5, align 8
  %6 = getelementptr inbounds i8, ptr %4, i64 20
  store i32 %1, ptr %6, align 4
  %7 = getelementptr inbounds i8, ptr %4, i64 8
  store ptr %0, ptr %7, align 8
  %8 = load i32, ptr %0, align 8
  %9 = icmp slt i32 %8, 1
  br i1 %9, label %10, label %13

10:                                               ; preds = %3
  %11 = load ptr, ptr @stderr, align 8
  %12 = tail call i64 @fwrite(ptr nonnull @.str.2, i64 222, i64 1, ptr %11) #11
  br label %13

13:                                               ; preds = %10, %3
  ret ptr %4
}